; Function Attrs: mustprogress uwtable
define void @_ZN6icu_777Package11removeItemsERKS0_(ptr noundef nonnull align 8 captures(none) dereferenceable(201237) %0, ptr noundef nonnull readonly align 8 captures(none) dereferenceable(201237) %1) local_unnamed_addr #13 align 2 {
  %3 = getelementptr inbounds nuw i8, ptr %1, i64 1172
  %4 = load i32, ptr %3, align 4, !tbaa !29
  %5 = icmp sgt i32 %4, 0
  br i1 %5, label %.lr.ph, label %._crit_edge

.lr.ph:                                           ; preds = %2
  %6 = getelementptr inbounds nuw i8, ptr %1, i64 1184
  %7 = load ptr, ptr %6, align 8, !tbaa !30
  %8 = getelementptr inbounds nuw i8, ptr %0, i64 1184
  %9 = getelementptr inbounds nuw i8, ptr %0, i64 1172
  %10 = getelementptr inbounds nuw i8, ptr %0, i64 201232
  br label %11

11:                                               ; preds = %.lr.ph, %_ZN6icu_777Package11removeItemsEPKc.exit
  %.08 = phi i32 [ 0, %.lr.ph ], [ %44, %_ZN6icu_777Package11removeItemsEPKc.exit ]
  %.067 = phi ptr [ %7, %.lr.ph ], [ %43, %_ZN6icu_777Package11removeItemsEPKc.exit ]
  %12 = load ptr, ptr %.067, align 8, !tbaa !54
  tail call void @_ZN6icu_777Package9findItemsEPKc(ptr noundef nonnull align 8 dereferenceable(201237) %0, ptr noundef %12)
  %13 = tail call noundef i32 @_ZN6icu_777Package12findNextItemEv(ptr noundef nonnull align 8 dereferenceable(201237) %0)
  %14 = icmp sgt i32 %13, -1
  br i1 %14, label %.lr.ph.i, label %_ZN6icu_777Package11removeItemsEPKc.exit

.lr.ph.i:                                         ; preds = %11, %_ZN6icu_777Package10removeItemEi.exit.i
  %15 = phi i32 [ %41, %_ZN6icu_777Package10removeItemEi.exit.i ], [ %13, %11 ]
  %16 = load ptr, ptr %8, align 8, !tbaa !30
  %17 = zext nneg i32 %15 to i64
  %18 = getelementptr inbounds nuw %"struct.icu_77::Item", ptr %16, i64 %17
  %19 = getelementptr inbounds nuw i8, ptr %18, i64 20
  %20 = load i8, ptr %19, align 4, !tbaa !31
  %.not.i.i = icmp eq i8 %20, 0
  br i1 %.not.i.i, label %24, label %21

21:                                               ; preds = %.lr.ph.i
  %22 = getelementptr inbounds nuw i8, ptr %18, i64 8
  %23 = load ptr, ptr %22, align 8, !tbaa !33
  tail call void @uprv_free_77(ptr noundef %23)
  br label %24

24:                                               ; preds = %21, %.lr.ph.i
  %25 = add nuw nsw i32 %15, 1
  %26 = load i32, ptr %9, align 4, !tbaa !29
  %27 = icmp slt i32 %25, %26
  br i1 %27, label %28, label %35

28:                                               ; preds = %24
  %29 = load ptr, ptr %8, align 8, !tbaa !30
  %30 = getelementptr inbounds nuw %"struct.icu_77::Item", ptr %29, i64 %17
  %31 = getelementptr inbounds nuw i8, ptr %30, i64 24
  %32 = sub nsw i32 %26, %25
  %33 = sext i32 %32 to i64
  %34 = mul nsw i64 %33, 24
  tail call void @llvm.memmove.p0.p0.i64(ptr align 8 %30, ptr nonnull align 8 %31, i64 %34, i1 false)
  %.pre.i.i = load i32, ptr %9, align 4, !tbaa !29
  br label %35

35:                                               ; preds = %28, %24
  %36 = phi i32 [ %.pre.i.i, %28 ], [ %26, %24 ]
  %37 = add nsw i32 %36, -1
  store i32 %37, ptr %9, align 4, !tbaa !29
  %38 = load i32, ptr %10, align 8, !tbaa !27
  %.not11.i.i = icmp sgt i32 %15, %38
  br i1 %.not11.i.i, label %_ZN6icu_777Package10removeItemEi.exit.i, label %39

39:                                               ; preds = %35
  %40 = add nsw i32 %38, -1
  store i32 %40, ptr %10, align 8, !tbaa !27
  br label %_ZN6icu_777Package10removeItemEi.exit.i

_ZN6icu_777Package10removeItemEi.exit.i:          ; preds = %39, %35
  %41 = tail call noundef i32 @_ZN6icu_777Package12findNextItemEv(ptr noundef nonnull align 8 dereferenceable(201237) %0)
  %42 = icmp sgt i32 %41, -1
  br i1 %42, label %.lr.ph.i, label %_ZN6icu_777Package11removeItemsEPKc.exit, !llvm.loop !75

_ZN6icu_777Package11removeItemsEPKc.exit:         ; preds = %_ZN6icu_777Package10removeItemEi.exit.i, %11
  %43 = getelementptr inbounds nuw i8, ptr %.067, i64 24
  %44 = add nuw nsw i32 %.08, 1
  %45 = load i32, ptr %3, align 4, !tbaa !29
  %46 = icmp slt i32 %44, %45
  br i1 %46, label %11, label %._crit_edge, !llvm.loop !76

._crit_edge:                                      ; preds = %_ZN6icu_777Package11removeItemsEPKc.exit, %2
  ret void
}